Certificate:
    Data:
        Version: 3 (0x2)
        Serial Number: 1152921504606847165 (0x10000000000000bd)
    Signature Algorithm: sha1WithRSAEncryption
        Issuer: C=CZ, O=AVAST Software a.s., OU=FF Internal, CN=FF Internal CA
        Validity
            Not Before: Jun 15 13:29:26 2015 GMT
            Not After : Jun 12 13:29:26 2025 GMT
        Subject: C=CZ, O=AVAST Software a.s., OU=FF Internal, CN=myavast-local
        Subject Public Key Info:
            Public Key Algorithm: rsaEncryption
                Public-Key: (2048 bit)
                Modulus:
                    00:a4:c5:ea:ba:29:56:ac:13:d9:8a:33:0a:35:2b:
                    1b:f8:1b:f2:9a:b3:95:99:27:71:38:ba:41:a6:0c:
                    74:bf:97:13:0f:5b:3e:11:5a:05:34:d9:84:93:19:
                    d5:6e:4a:7c:ad:ad:78:6f:58:43:c8:46:7b:f3:63:
                    0f:1e:e6:12:2d:7d:ef:21:17:46:ff:7e:46:ce:66:
                    e4:74:a2:dd:39:c3:42:45:2b:e1:3d:04:33:70:9b:
                    43:ab:4d:2c:44:32:cb:7a:f5:39:6b:f9:3d:8f:0e:
                    6e:3a:58:7a:93:c5:28:e0:4e:71:ca:4f:61:10:96:
                    45:f8:31:94:ae:17:3e:8d:95:ee:b2:93:df:d0:03:
                    86:6f:ae:33:d6:2e:89:ed:9e:50:df:27:52:6a:53:
                    76:51:d1:4e:25:3d:88:6d:77:24:cd:79:61:86:8a:
                    df:36:c4:2c:f0:24:97:62:c7:d1:d7:26:92:01:b0:
                    3a:77:70:34:bd:8e:07:20:a0:21:b3:fb:07:bf:a7:
                    5f:fb:37:b6:05:ad:2e:4c:c1:47:50:4f:5f:22:b0:
                    73:e0:2e:4c:30:37:eb:36:fe:03:0f:cb:98:8b:e8:
                    1a:b7:e5:b5:43:71:31:11:98:86:32:b9:6c:48:f2:
                    67:39:5e:aa:1d:c0:f4:97:7d:ed:6c:4f:52:be:30:
                    37:31
                Exponent: 65537 (0x10001)
        X509v3 extensions:
            X509v3 Basic Constraints: critical
                CA:FALSE
            X509v3 Key Usage: critical
                Digital Signature, Key Encipherment
            X509v3 Extended Key Usage: 
                TLS Web Server Authentication, TLS Web Client Authentication
            X509v3 Subject Key Identifier: 
                DF:7E:72:BE:EF:4C:CE:6D:2A:43:46:4C:30:88:28:02:22:BB:90:5A
            X509v3 Authority Key Identifier: 
                keyid:15:FD:80:BF:51:01:AB:32:AA:DA:50:8B:1A:8A:77:F2:51:37:95:B4

            X509v3 CRL Distribution Points: 

                Full Name:
                  URI:http://pki.ff.avast.com/ff_internal_ca.crl

            X509v3 Subject Alternative Name: 
                DNS:mylocal.ff.avast.com, DNS:idlocal.ff.avast.com, email:cloudops-alpha@avast.com
    Signature Algorithm: sha1WithRSAEncryption
         b1:39:eb:54:59:a1:27:e2:bf:93:a2:b7:b7:b4:cb:ff:64:1c:
         40:f4:aa:7d:c1:f1:6d:f8:30:ed:50:f5:30:43:c4:15:cc:ae:
         a4:7e:3b:54:27:6f:42:c8:3c:bb:f2:46:00:00:55:63:2e:4e:
         32:7c:9b:eb:1d:2c:28:10:92:c6:e0:26:87:35:57:f8:f7:48:
         d0:6f:1b:69:8a:cf:eb:85:39:b9:42:10:60:fc:15:d8:43:84:
         8c:6a:f8:5e:48:e7:3b:cd:2a:66:c6:6f:37:19:89:39:58:03:
         15:da:b2:88:84:6c:9c:7e:8b:c8:0c:47:03:94:a1:dd:6e:10:
         2c:d9:e3:63:bc:2d:69:44:d2:6a:d2:63:9f:58:6c:28:13:fb:
         2a:fb:a1:84:da:b8:de:77:96:7d:a4:a7:6c:b0:e8:56:34:57:
         1c:1d:e1:2d:16:03:74:29:92:31:6e:72:5e:7f:83:b5:bf:2f:
         11:d9:63:2b:2b:44:82:da:43:31:cc:c3:f9:87:e3:d3:e6:a3:
         f8:85:3b:f6:ef:6c:3a:3c:39:42:ac:03:63:5d:40:c2:01:6f:
         9f:d5:eb:81:2a:dc:87:53:d7:f4:97:13:81:c1:6f:65:2d:9c:
         47:7f:55:55:f5:e6:84:7a:7f:a6:d5:f1:9b:81:f7:33:ae:64:
         3c:d3:ce:a4
-----BEGIN CERTIFICATE-----
MIIERjCCAy6gAwIBAgIIEAAAAAAAAL0wDQYJKoZIhvcNAQEFBQAwWjELMAkGA1UE
BhMCQ1oxHDAaBgNVBAoME0FWQVNUIFNvZnR3YXJlIGEucy4xFDASBgNVBAsMC0ZG
IEludGVybmFsMRcwFQYDVQQDDA5GRiBJbnRlcm5hbCBDQTAeFw0xNTA2MTUxMzI5
MjZaFw0yNTA2MTIxMzI5MjZaMFkxCzAJBgNVBAYTAkNaMRwwGgYDVQQKDBNBVkFT
VCBTb2Z0d2FyZSBhLnMuMRQwEgYDVQQLDAtGRiBJbnRlcm5hbDEWMBQGA1UEAwwN
bXlhdmFzdC1sb2NhbDCCASIwDQYJKoZIhvcNAQEBBQADggEPADCCAQoCggEBAKTF
6ropVqwT2YozCjUrG/gb8pqzlZkncTi6QaYMdL+XEw9bPhFaBTTZhJMZ1W5KfK2t
eG9YQ8hGe/NjDx7mEi197yEXRv9+Rs5m5HSi3TnDQkUr4T0EM3CbQ6tNLEQyy3r1
OWv5PY8ObjpYepPFKOBOccpPYRCWRfgxlK4XPo2V7rKT39ADhm+uM9Yuie2eUN8n
UmpTdlHRTiU9iG13JM15YYaK3zbELPAkl2LH0dcmkgGwOndwNL2OByCgIbP7B7+n
X/s3tgWtLkzBR1BPXyKwc+AuTDA36zb+Aw/LmIvoGrfltUNxMRGYhjK5bEjyZzle
qh3A9Jd97WxPUr4wNzECAwEAAaOCAQ8wggELMAwGA1UdEwEB/wQCMAAwDgYDVR0P
AQH/BAQDAgWgMB0GA1UdJQQWMBQGCCsGAQUFBwMBBggrBgEFBQcDAjAdBgNVHQ4E
FgQU335yvu9Mzm0qQ0ZMMIgoAiK7kFowHwYDVR0jBBgwFoAUFf2Av1EBqzKq2lCL
Gop38lE3lbQwOwYDVR0fBDQwMjAwoC6gLIYqaHR0cDovL3BraS5mZi5hdmFzdC5j
b20vZmZfaW50ZXJuYWxfY2EuY3JsME8GA1UdEQRIMEaCFG15bG9jYWwuZmYuYXZh
c3QuY29tghRpZGxvY2FsLmZmLmF2YXN0LmNvbYEYY2xvdWRvcHMtYWxwaGFAYXZh
c3QuY29tMA0GCSqGSIb3DQEBBQUAA4IBAQCxOetUWaEn4r+Tore3tMv/ZBxA9Kp9
wfFt+DDtUPUwQ8QVzK6kfjtUJ29CyDy78kYAAFVjLk4yfJvrHSwoEJLG4CaHNVf4
90jQbxtpis/rhTm5QhBg/BXYQ4SMavheSOc7zSpmxm83GYk5WAMV2rKIhGycfovI
DEcDlKHdbhAs2eNjvC1pRNJq0mOfWGwoE/sq+6GE2rjed5Z9pKdssOhWNFccHeEt
FgN0KZIxbnJef4O1vy8R2WMrK0SC2kMxzMP5h+PT5qP4hTv272w6PDlCrANjXUDC
AW+f1euBKtyHU9f0lxOBwW9lLZxHf1VV9eaEen+m1fGbgfczrmQ8086k
-----END CERTIFICATE-----
